; Function Attrs: mustprogress nofree norecurse nosync nounwind memory(readwrite, inaccessiblemem: none) uwtable
define noundef i32 @_ZNK6casadi17GetNonzerosVector10sp_forwardEPPKyPPyPxS4_(ptr nocapture noundef nonnull readonly align 8 dereferenceable(88) %0, ptr nocapture noundef readonly %1, ptr nocapture noundef readonly %2, ptr nocapture readnone %3, ptr nocapture readnone %4) unnamed_addr #6 align 2 {
  %6 = load ptr, ptr %1, align 8
  %7 = getelementptr inbounds i8, ptr %0, i64 64
  %8 = load ptr, ptr %7, align 8
  %9 = getelementptr inbounds i8, ptr %0, i64 72
  %10 = load ptr, ptr %9, align 8
  %.not13 = icmp eq ptr %8, %10
  br i1 %.not13, label %._crit_edge, label %.lr.ph.preheader

.lr.ph.preheader:                                 ; preds = %5
  %11 = load ptr, ptr %2, align 8
  br label %.lr.ph

.lr.ph:                                           ; preds = %.lr.ph.preheader, %17
  %.015 = phi ptr [ %19, %17 ], [ %11, %.lr.ph.preheader ]
  %.sroa.010.014 = phi ptr [ %20, %17 ], [ %8, %.lr.ph.preheader ]
  %12 = load i64, ptr %.sroa.010.014, align 8
  %13 = icmp sgt i64 %12, -1
  br i1 %13, label %14, label %17

14:                                               ; preds = %.lr.ph
  %15 = getelementptr inbounds i64, ptr %6, i64 %12
  %16 = load i64, ptr %15, align 8
  br label %17

17:                                               ; preds = %.lr.ph, %14
  %18 = phi i64 [ %16, %14 ], [ 0, %.lr.ph ]
  %19 = getelementptr inbounds i8, ptr %.015, i64 8
  store i64 %18, ptr %.015, align 8
  %20 = getelementptr inbounds i8, ptr %.sroa.010.014, i64 8
  %.not = icmp eq ptr %20, %10
  br i1 %.not, label %._crit_edge, label %.lr.ph

._crit_edge:                                      ; preds = %17, %5
  ret i32 0
}